(dp1
S'settings'
p2
S'\x9a\x10\xf0l\xb2\xdcJ\xb9c\xedE\xb9\xdc\xf3\xcbz'
p3
sS'format'
p4
I1
sS'files'
p5
(dp6
S'ymir_service_amazon'
p7
(dp8
S'hash'
p9
S'\xffK\xbe8\xf5\xd0To\x0ck\xb6\xc1\x00\xd7x\x8e'
p10
sS'index'
p11
(dp12
S'html_filename'
p13
S'ymir_service_amazon.html'
p14
sS'name'
p15
S'ymir/service/amazon'
p16
sS'nums'
p17
ccopy_reg
_reconstructor
p18
(ccoverage.results
Numbers
p19
c__builtin__
object
p20
NtRp21
(dp22
S'n_files'
p23
I1
sS'n_missing'
p24
I122
sS'n_branches'
p25
I0
sS'n_missing_branches'
p26
I0
sS'n_partial_branches'
p27
I0
sS'n_excluded'
p28
I0
sS'n_statements'
p29
I167
sbsssS'ymir_contrib_backports_get_terminal_size'
p30
(dp31
S'hash'
p32
S'\x1ao/\xd59\x8d\xc6^\x01J\xec\xde\xee\xf9\x07.'
p33
sS'index'
p34
(dp35
S'html_filename'
p36
S'ymir_contrib_backports_get_terminal_size.html'
p37
sS'name'
p38
S'ymir/contrib/backports/get_terminal_size'
p39
sS'nums'
p40
g18
(g19
g20
NtRp41
(dp42
g23
I1
sg24
I40
sg25
I0
sg26
I0
sg27
I0
sg28
I0
sg29
I54
sbsssS'ymir__ansible'
p43
(dp44
S'hash'
p45
S'\xe7\x10\xc5+\xcaDs \x0fB\x82*j\xe9J,'
p46
sS'index'
p47
(dp48
S'html_filename'
p49
S'ymir__ansible.html'
p50
sS'name'
p51
S'ymir/_ansible'
p52
sS'nums'
p53
g18
(g19
g20
NtRp54
(dp55
g23
I1
sg24
I29
sg25
I0
sg26
I0
sg27
I0
sg28
I0
sg29
I54
sbsssS'ymir_commands'
p56
(dp57
g9
S'\xae@J\xe9t\x94y"\x1fUQ\'r\xf3\xf5\xfd'
p58
sg11
(dp59
g13
S'ymir_commands.html'
p60
sg15
S'ymir/commands'
p61
sg17
g18
(g19
g20
NtRp62
(dp63
g23
I1
sg24
I58
sg25
I0
sg26
I0
sg27
I0
sg28
I0
sg29
I142
sbsssS'ymir_skeleton_fabfile'
p64
(dp65
g9
S'd^\x13\xc2\xea\xe2D w\xa8O\xae\xbf=\x9d\xb5'
p66
sg11
(dp67
g36
S'ymir_skeleton_fabfile.html'
p68
sg38
S'ymir/skeleton/fabfile'
p69
sg40
g18
(g19
g20
NtRp70
(dp71
g23
I1
sg24
I3
sg25
I0
sg26
I0
sg27
I0
sg28
I0
sg29
I12
sbsssS'ymir_schema_data'
p72
(dp73
g9
S'\xb5\x8f\xe3\x1a\x8c\x19\xcc\nwW6\xe2\xf4u\xbd\xe7'
p74
sg11
(dp75
S'html_filename'
p76
S'ymir_schema_data.html'
p77
sS'name'
p78
S'ymir/schema/data'
p79
sS'nums'
p80
g18
(g19
g20
NtRp81
(dp82
g23
I1
sg24
I0
sg25
I0
sg26
I0
sg27
I0
sg28
I0
sg29
I10
sbsssS'ymir_puppet'
p83
(dp84
g9
S'~P\x1aU\xf6\x8a\x1dX*\x87G\xea\x7fK\xa5\x1d'
p85
sg11
(dp86
S'html_filename'
p87
S'ymir_puppet.html'
p88
sS'name'
p89
S'ymir/puppet'
p90
sS'nums'
p91
g18
(g19
g20
NtRp92
(dp93
g23
I1
sg24
I71
sg25
I0
sg26
I0
sg27
I0
sg28
I0
sg29
I132
sbsssS'ymir_mixins__ansible'
p94
(dp95
S'hash'
p96
S'\\\x18!%\xad\xd1\xae7)\x1d\x86\xc1R\x8fdm'
p97
sS'index'
p98
(dp99
S'html_filename'
p100
S'ymir_mixins__ansible.html'
p101
sS'name'
p102
S'ymir/mixins/_ansible'
p103
sS'nums'
p104
g18
(g19
g20
NtRp105
(dp106
g23
I1
sg24
I74
sg25
I0
sg26
I0
sg27
I0
sg28
I0
sg29
I105
sbsssS'ymir_contrib___init__'
p107
(dp108
g32
S'\xca\xf5\x9f\x7f\x88\xdfa\x831|T\x1d\xbc}\xa5v'
p109
sg34
(dp110
g36
S'ymir_contrib___init__.html'
p111
sg38
S'ymir/contrib/__init__'
p112
sg40
g18
(g19
g20
NtRp113
(dp114
g23
I1
sg24
I0
sg25
I0
sg26
I0
sg27
I0
sg28
I0
sg29
I0
sbsssS'ymir_data___init__'
p115
(dp116
g9
S'\xb6r\x86\x02\xb6o\xf6\xc0\xa9Y\xc4-\x02V\xe1\xc1'
p117
sg11
(dp118
S'html_filename'
p119
S'ymir_data___init__.html'
p120
sS'name'
p121
S'ymir/data/__init__'
p122
sS'nums'
p123
g18
(g19
g20
NtRp124
(dp125
g23
I1
sg24
I0
sg25
I0
sg26
I0
sg27
I0
sg28
I0
sg29
I14
sbsssS'ymir_mixins_packages'
p126
(dp127
g96
S'\xa8\xaa\n\xeb\x1e\x8e\xab`xy\x0b$H\xcb\x13\x95'
p128
sg98
(dp129
S'html_filename'
p130
S'ymir_mixins_packages.html'
p131
sS'name'
p132
S'ymir/mixins/packages'
p133
sS'nums'
p134
g18
(g19
g20
NtRp135
(dp136
g23
I1
sg24
I43
sg25
I0
sg26
I0
sg27
I0
sg28
I0
sg29
I63
sbsssS'ymir_schema_util'
p137
(dp138
g9
S"\n\xb6\xa5\xaaw\x8fmr'\x9f\x96\x10\xa6$}\x8f"
p139
sg11
(dp140
S'html_filename'
p141
S'ymir_schema_util.html'
p142
sS'name'
p143
S'ymir/schema/util'
p144
sS'nums'
p145
g18
(g19
g20
NtRp146
(dp147
g23
I1
sg24
I1
sg25
I0
sg26
I0
sg27
I0
sg28
I0
sg29
I1
sbsssS'ymir_bin__ymir'
p148
(dp149
g9
S'\xc3\xb5\xc3\xd1{\x06\x06alM\xb0\x07\xabD\xc2\x15'
p150
sg11
(dp151
g13
S'ymir_bin__ymir.html'
p152
sg15
S'ymir/bin/_ymir'
p153
sg17
g18
(g19
g20
NtRp154
(dp155
g23
I1
sg24
I7
sg25
I0
sg26
I0
sg27
I0
sg28
I0
sg29
I80
sbsssS'ymir___init__'
p156
(dp157
g9
S'\xa3\xe9}\xea0(EE\xc6\x17Z~B@J\xfc'
p158
sg11
(dp159
S'html_filename'
p160
S'ymir___init__.html'
p161
sS'name'
p162
S'ymir/__init__'
p163
sS'nums'
p164
g18
(g19
g20
NtRp165
(dp166
g23
I1
sg24
I0
sg25
I0
sg26
I0
sg27
I0
sg28
I0
sg29
I3
sbsssS'ymir_schema_validators'
p167
(dp168
g9
S'\xd6\x1a\xaa\xb0\xfe:\x03\x85\xfbTr]\xad=\x81Y'
p169
sg11
(dp170
g160
S'ymir_schema_validators.html'
p171
sg162
S'ymir/schema/validators'
p172
sg164
g18
(g19
g20
NtRp173
(dp174
g23
I1
sg24
I7
sg25
I0
sg26
I0
sg27
I0
sg28
I0
sg29
I55
sbsssS'ymir_schema_security_groups'
p175
(dp176
g9
S'\x94/\x03\x18nYI\x01\xbe\xee\x119<\xe5\xfe\xa5'
p177
sg11
(dp178
g13
S'ymir_schema_security_groups.html'
p179
sg15
S'ymir/schema/security_groups'
p180
sg17
g18
(g19
g20
NtRp181
(dp182
g23
I1
sg24
I11
sg25
I0
sg26
I0
sg27
I0
sg28
I0
sg29
I34
sbsssS'ymir_bin___init__'
p183
(dp184
g9
S'\xca\xf5\x9f\x7f\x88\xdfa\x831|T\x1d\xbc}\xa5v'
p185
sg11
(dp186
g13
S'ymir_bin___init__.html'
p187
sg15
S'ymir/bin/__init__'
p188
sg17
g18
(g19
g20
NtRp189
(dp190
g23
I1
sg24
I0
sg25
I0
sg26
I0
sg27
I0
sg28
I0
sg29
I0
sbsssS'ymir_util_puppet'
p191
(dp192
g9
S'/\x85k`\xb4\x04\x15\xf8:\xaf\x82X\xc3\x8f\x1b\xfa'
p193
sg11
(dp194
g100
S'ymir_util_puppet.html'
p195
sg102
S'ymir/util/puppet'
p196
sg104
g18
(g19
g20
NtRp197
(dp198
g23
I1
sg24
I13
sg25
I0
sg26
I0
sg27
I0
sg28
I0
sg29
I20
sbsssS'ymir_service__vagrant'
p199
(dp200
g9
S'\n\xc2?c\x11\xe2\xbe\xf3v\x85F\xe4\xc0\xb1\x901'
p201
sg11
(dp202
g160
S'ymir_service__vagrant.html'
p203
sg162
S'ymir/service/_vagrant'
p204
sg164
g18
(g19
g20
NtRp205
(dp206
g23
I1
sg24
I47
sg25
I0
sg26
I0
sg27
I0
sg28
I0
sg29
I90
sbsssS'ymir_checks'
p207
(dp208
g9
S'/\xa9\xa4\xe2h\x94F\xd1+c\x1a\x97N\xd7\x9b\x95'
p209
sg11
(dp210
S'html_filename'
p211
S'ymir_checks.html'
p212
sS'name'
p213
S'ymir/checks'
p214
sS'nums'
p215
g18
(g19
g20
NtRp216
(dp217
g23
I1
sg24
I63
sg25
I0
sg26
I0
sg27
I0
sg28
I4
sg29
I166
sbsssS'ymir_service_base'
p218
(dp219
g9
S'\x14\x81-\xcf\x10\xa1\x8a\x8e\xdd=FF\xe2\xc1W\x82'
p220
sg11
(dp221
g130
S'ymir_service_base.html'
p222
sg132
S'ymir/service/base'
p223
sg134
g18
(g19
g20
NtRp224
(dp225
g23
I1
sg24
I117
sg25
I0
sg26
I0
sg27
I0
sg28
I6
sg29
I235
sbsssS'ymir_service___init__'
p226
(dp227
g9
S'\xf9wEX\xf8\xed\x167\x922m1\x92\\\xb7<'
p228
sg11
(dp229
g13
S'ymir_service___init__.html'
p230
sg15
S'ymir/service/__init__'
p231
sg17
g18
(g19
g20
NtRp232
(dp233
g23
I1
sg24
I0
sg25
I0
sg26
I0
sg27
I0
sg28
I0
sg29
I5
sbsssS'ymir_security_groups'
p234
(dp235
g9
S'9d\xb2!jHIE\x93K\xd6$\xf2%^\xbd'
p236
sg11
(dp237
g13
S'ymir_security_groups.html'
p238
sg15
S'ymir/security_groups'
p239
sg17
g18
(g19
g20
NtRp240
(dp241
g23
I1
sg24
I10
sg25
I0
sg26
I0
sg27
I0
sg28
I0
sg29
I49
sbsssS'ymir_api'
p242
(dp243
g9
S'\x01\x03R\x01\x86g\xbc\x9c\xe7\xb5\x9c\xab\xd7\xed\x97\x1e'
p244
sg11
(dp245
g36
S'ymir_api.html'
p246
sg38
S'ymir/api'
p247
sg40
g18
(g19
g20
NtRp248
(dp249
g23
I1
sg24
I2
sg25
I0
sg26
I0
sg27
I0
sg28
I0
sg29
I92
sbsssS'ymir_validation___init__'
p250
(dp251
g9
S'\xa4\x89\xc4\xff\xba\xcbe\x0bp3\xdd\xc9\xfcL\xb1\xd0'
p252
sg11
(dp253
g119
S'ymir_validation___init__.html'
p254
sg121
S'ymir/validation/__init__'
p255
sg123
g18
(g19
g20
NtRp256
(dp257
g23
I1
sg24
I35
sg25
I0
sg26
I0
sg27
I0
sg28
I0
sg29
I201
sbsssS'ymir_skeleton___init__'
p258
(dp259
g9
S'z\x0cx\x9cL\xcf\xbc\xaa\x0c\xa7+\xe4\x89\xbf\xe6\xf9'
p260
sg11
(dp261
g13
S'ymir_skeleton___init__.html'
p262
sg15
S'ymir/skeleton/__init__'
p263
sg17
g18
(g19
g20
NtRp264
(dp265
g23
I1
sg24
I0
sg25
I0
sg26
I0
sg27
I0
sg28
I0
sg29
I1
sbsssS'ymir_schema___init__'
p266
(dp267
g9
S'f\xb8%\xb5\xaeN\x83\xf0\x03\x7f\x0b\xdbi\x97\x13I'
p268
sg11
(dp269
g76
S'ymir_schema___init__.html'
p270
sg78
S'ymir/schema/__init__'
p271
sg80
g18
(g19
g20
NtRp272
(dp273
g23
I1
sg24
I1
sg25
I0
sg26
I0
sg27
I0
sg28
I0
sg29
I25
sbsssS'ymir_util___init__'
p274
(dp275
g9
S'\xb8`\xecZ\xdd\x16^\xdcuc\x1e\n\xc1\x9atd'
p276
sg11
(dp277
g100
S'ymir_util___init__.html'
p278
sg102
S'ymir/util/__init__'
p279
sg104
g18
(g19
g20
NtRp280
(dp281
g23
I1
sg24
I98
sg25
I0
sg26
I0
sg27
I0
sg28
I0
sg29
I211
sbsssS'ymir_loom'
p282
(dp283
g9
S'd0\xff\x07\xe8\xce\xf2\xc1\xdea\xadA\xdd\x9b\xa9\x1b'
p284
sg11
(dp285
g13
S'ymir_loom.html'
p286
sg15
S'ymir/loom'
p287
sg17
g18
(g19
g20
NtRp288
(dp289
g23
I1
sg24
I22
sg25
I0
sg26
I0
sg27
I0
sg28
I0
sg29
I31
sbsssS'ymir_caching'
p290
(dp291
g9
S"F\xe3'\xd5/Z\x91\x06Q\xa1\xbe\xfe%!s+"
p292
sg11
(dp293
g13
S'ymir_caching.html'
p294
sg15
S'ymir/caching'
p295
sg17
g18
(g19
g20
NtRp296
(dp297
g23
I1
sg24
I7
sg25
I0
sg26
I0
sg27
I0
sg28
I0
sg29
I21
sbsssS'ymir_mixins__fabric'
p298
(dp299
S'hash'
p300
S'l\xeb\x88\xff"\xa9R\x10I\xcc\xe8\x1c\x07.\x83\xf1'
p301
sS'index'
p302
(dp303
g130
S'ymir_mixins__fabric.html'
p304
sg132
S'ymir/mixins/_fabric'
p305
sg134
g18
(g19
g20
NtRp306
(dp307
g23
I1
sg24
I54
sg25
I0
sg26
I0
sg27
I0
sg28
I0
sg29
I83
sbsssS'ymir_mixins_puppet'
p308
(dp309
g300
S'\xfb-]e\x82\xbe\xb3\xcf\xbbz,@E\xfe\xc8\x1b'
p310
sg302
(dp311
g130
S'ymir_mixins_puppet.html'
p312
sg132
S'ymir/mixins/puppet'
p313
sg134
g18
(g19
g20
NtRp314
(dp315
g23
I1
sg24
I93
sg25
I0
sg26
I0
sg27
I0
sg28
I0
sg29
I169
sbsssS'ymir_contrib_backports___init__'
p316
(dp317
g32
S'\xca\xf5\x9f\x7f\x88\xdfa\x831|T\x1d\xbc}\xa5v'
p318
sg34
(dp319
g36
S'ymir_contrib_backports___init__.html'
p320
sg38
S'ymir/contrib/backports/__init__'
p321
sg40
g18
(g19
g20
NtRp322
(dp323
g23
I1
sg24
I0
sg25
I0
sg26
I0
sg27
I0
sg28
I0
sg29
I0
sbsssS'ymir_mixins___init__'
p324
(dp325
g96
S'K\xf1n[\xe6-\x12\x08>\x13\xf8\xb9\xe0\xa6\xa6W'
p326
sg98
(dp327
g13
S'ymir_mixins___init__.html'
p328
sg15
S'ymir/mixins/__init__'
p329
sg17
g18
(g19
g20
NtRp330
(dp331
g23
I1
sg24
I0
sg25
I0
sg26
I0
sg27
I0
sg28
I0
sg29
I6
sbsssS'ymir_version'
p332
(dp333
g9
S'\xb6\x10$l\x1f\'\x85m\xfa~\x07\xd2\x80X\xad"'
p334
sg11
(dp335
g13
S'ymir_version.html'
p336
sg15
S'ymir/version'
p337
sg17
g18
(g19
g20
NtRp338
(dp339
g23
I1
sg24
I0
sg25
I0
sg26
I0
sg27
I0
sg28
I0
sg29
I2
sbsssS'ymir_beanstalk'
p340
(dp341
g9
S'\x11\xa8\xc0\x9b5\xec\x7fG\x94\xd9\xcc\xe7\xc9{\xe3\xbf'
p342
sg11
(dp343
g76
S'ymir_beanstalk.html'
p344
sg78
S'ymir/beanstalk'
p345
sg80
g18
(g19
g20
NtRp346
(dp347
g23
I1
sg24
I48
sg25
I0
sg26
I0
sg27
I0
sg28
I0
sg29
I74
sbsssS'ymir_base'
p348
(dp349
g9
S'\xdd\x96\xc5\xeaU\xcd\xb6\x0c*\xe3\x044"\x05r\r'
p350
sg11
(dp351
g100
S'ymir_base.html'
p352
sg102
S'ymir/base'
p353
sg104
g18
(g19
g20
NtRp354
(dp355
g23
I1
sg24
I1
sg25
I0
sg26
I0
sg27
I0
sg28
I0
sg29
I19
sbsssS'ymir_util_backports'
p356
(dp357
g9
S'\xba\xa2\xc4\xc1\xe2\xc7)\\\xc5iy2\x0f\x8b\xfd)'
p358
sg11
(dp359
g13
S'ymir_util_backports.html'
p360
sg15
S'ymir/util/backports'
p361
sg17
g18
(g19
g20
NtRp362
(dp363
g23
I1
sg24
I0
sg25
I0
sg26
I0
sg27
I0
sg28
I49
sg29
I5
sbsssS'ymir_schema_base'
p364
(dp365
g9
S'AQ\x04h\x07\x87s\xc7\xa9\xd5\x0f\x0c]8\x08x'
p366
sg11
(dp367
g160
S'ymir_schema_base.html'
p368
sg162
S'ymir/schema/base'
p369
sg164
g18
(g19
g20
NtRp370
(dp371
g23
I1
sg24
I14
sg25
I0
sg26
I0
sg27
I0
sg28
I0
sg29
I42
sbssssS'version'
p372
S'3.7.1'
p373
s.